; Function Attrs: mustprogress uwtable
define noundef zeroext i1 @_ZN8facebook5velox20unregisterCustomTypeERKNSt7__cxx1112basic_stringIcSt11char_traitsIcESaIcEEE(ptr noundef nonnull align 8 dereferenceable(32) %name) local_unnamed_addr #0 personality ptr @__gxx_personality_v0 {
entry:
  %uppercaseName = alloca %"class.std::__cxx11::basic_string", align 8
  %ref.tmp = alloca %"class.std::locale", align 8
  call void @_ZNSt6localeC1Ev(ptr noundef nonnull align 8 dereferenceable(8) %ref.tmp) #37
  invoke void @_ZN5boost9algorithm6detail20transform_range_copyINSt7__cxx1112basic_stringIcSt11char_traitsIcESaIcEEES8_NS1_9to_upperFIcEEEET_RKT0_T1_(ptr nonnull sret(%"class.std::__cxx11::basic_string") align 8 %uppercaseName, ptr noundef nonnull align 8 dereferenceable(32) %name, ptr nonnull %ref.tmp)
          to label %invoke.cont unwind label %lpad

invoke.cont:                                      ; preds = %entry
  call void @_ZNSt6localeD1Ev(ptr noundef nonnull align 8 dereferenceable(8) %ref.tmp) #37
  %0 = load atomic i8, ptr @_ZGVZN8facebook5velox12_GLOBAL__N_113typeFactoriesB5cxx11EvE9factoriesB5cxx11 acquire, align 8
  %guard.uninitialized.i = icmp eq i8 %0, 0
  br i1 %guard.uninitialized.i, label %init.check.i, label %_ZN8facebook5velox12_GLOBAL__N_113typeFactoriesB5cxx11Ev.exit, !prof !4

init.check.i:                                     ; preds = %invoke.cont
  %1 = call i32 @__cxa_guard_acquire(ptr nonnull @_ZGVZN8facebook5velox12_GLOBAL__N_113typeFactoriesB5cxx11EvE9factoriesB5cxx11) #37
  %tobool.not.i = icmp eq i32 %1, 0
  br i1 %tobool.not.i, label %_ZN8facebook5velox12_GLOBAL__N_113typeFactoriesB5cxx11Ev.exit, label %init.i

init.i:                                           ; preds = %init.check.i
  store ptr getelementptr inbounds (%"class.std::unordered_map.252", ptr @_ZZN8facebook5velox12_GLOBAL__N_113typeFactoriesB5cxx11EvE9factoriesB5cxx11, i64 0, i32 0, i32 5), ptr @_ZZN8facebook5velox12_GLOBAL__N_113typeFactoriesB5cxx11EvE9factoriesB5cxx11, align 8
  store i64 1, ptr getelementptr inbounds (%"class.std::unordered_map.252", ptr @_ZZN8facebook5velox12_GLOBAL__N_113typeFactoriesB5cxx11EvE9factoriesB5cxx11, i64 0, i32 0, i32 1), align 8
  call void @llvm.memset.p0.i64(ptr noundef nonnull align 8 dereferenceable(16) getelementptr inbounds (%"class.std::unordered_map.252", ptr @_ZZN8facebook5velox12_GLOBAL__N_113typeFactoriesB5cxx11EvE9factoriesB5cxx11, i64 0, i32 0, i32 2, i32 0), i8 0, i64 16, i1 false)
  store float 1.000000e+00, ptr getelementptr inbounds (%"class.std::unordered_map.252", ptr @_ZZN8facebook5velox12_GLOBAL__N_113typeFactoriesB5cxx11EvE9factoriesB5cxx11, i64 0, i32 0, i32 4, i32 0), align 8
  call void @llvm.memset.p0.i64(ptr noundef nonnull align 8 dereferenceable(16) getelementptr inbounds (%"class.std::unordered_map.252", ptr @_ZZN8facebook5velox12_GLOBAL__N_113typeFactoriesB5cxx11EvE9factoriesB5cxx11, i64 0, i32 0, i32 4, i32 1), i8 0, i64 16, i1 false)
  %2 = call i32 @__cxa_atexit(ptr nonnull @_ZNSt13unordered_mapINSt7__cxx1112basic_stringIcSt11char_traitsIcESaIcEEESt10unique_ptrIKN8facebook5velox19CustomTypeFactoriesESt14default_deleteISA_EESt4hashIS5_ESt8equal_toIS5_ESaISt4pairIKS5_SD_EEED2Ev, ptr nonnull @_ZZN8facebook5velox12_GLOBAL__N_113typeFactoriesB5cxx11EvE9factoriesB5cxx11, ptr nonnull @__dso_handle) #37
  call void @__cxa_guard_release(ptr nonnull @_ZGVZN8facebook5velox12_GLOBAL__N_113typeFactoriesB5cxx11EvE9factoriesB5cxx11) #37
  br label %_ZN8facebook5velox12_GLOBAL__N_113typeFactoriesB5cxx11Ev.exit

_ZN8facebook5velox12_GLOBAL__N_113typeFactoriesB5cxx11Ev.exit: ; preds = %invoke.cont, %init.check.i, %init.i
  %call.i.i2 = invoke noundef i64 @_ZNSt10_HashtableINSt7__cxx1112basic_stringIcSt11char_traitsIcESaIcEEESt4pairIKS5_St10unique_ptrIKN8facebook5velox19CustomTypeFactoriesESt14default_deleteISC_EEESaISG_ENSt8__detail10_Select1stESt8equal_toIS5_ESt4hashIS5_ENSI_18_Mod_range_hashingENSI_20_Default_ranged_hashENSI_20_Prime_rehash_policyENSI_17_Hashtable_traitsILb1ELb0ELb1EEEE8_M_eraseESt17integral_constantIbLb1EERS7_(ptr noundef nonnull align 8 dereferenceable(56) @_ZZN8facebook5velox12_GLOBAL__N_113typeFactoriesB5cxx11EvE9factoriesB5cxx11, ptr noundef nonnull align 8 dereferenceable(32) %uppercaseName)
          to label %invoke.cont3 unwind label %lpad1

invoke.cont3:                                     ; preds = %_ZN8facebook5velox12_GLOBAL__N_113typeFactoriesB5cxx11Ev.exit
  %cmp = icmp eq i64 %call.i.i2, 1
  call void @_ZNSt7__cxx1112basic_stringIcSt11char_traitsIcESaIcEED1Ev(ptr noundef nonnull align 8 dereferenceable(32) %uppercaseName) #37
  ret i1 %cmp

lpad:                                             ; preds = %entry
  %3 = landingpad { ptr, i32 }
          cleanup
  call void @_ZNSt6localeD1Ev(ptr noundef nonnull align 8 dereferenceable(8) %ref.tmp) #37
  br label %eh.resume

lpad1:                                            ; preds = %_ZN8facebook5velox12_GLOBAL__N_113typeFactoriesB5cxx11Ev.exit
  %4 = landingpad { ptr, i32 }
          cleanup
  call void @_ZNSt7__cxx1112basic_stringIcSt11char_traitsIcESaIcEED1Ev(ptr noundef nonnull align 8 dereferenceable(32) %uppercaseName) #37
  br label %eh.resume

eh.resume:                                        ; preds = %lpad1, %lpad
  %.pn = phi { ptr, i32 } [ %4, %lpad1 ], [ %3, %lpad ]
  resume { ptr, i32 } %.pn
}